target datalayout = "e-m:e-p270:32:32-p271:32:32-p272:64:64-i64:64-i128:128-f80:128-n8:16:32:64-S128"
target triple = "x86_64-pc-linux-gnu"

%struct.GenericEnumerateData = type { i64, ptr, ptr }

@.str.4 = private unnamed_addr constant [5 x i8] c"%s%s\00", align 1
@.str.6 = private unnamed_addr constant [1 x i8] zeroinitializer, align 1

; Function Attrs: nounwind uwtable
define internal ptr @GENERIC_INTERNAL_CreateFullPath(ptr noundef %0, ptr noundef %1) #0 {
  %3 = alloca ptr, align 8
  %4 = alloca ptr, align 8
  %5 = alloca ptr, align 8
  store ptr %0, ptr %3, align 8
  store ptr %1, ptr %4, align 8
  call void @llvm.lifetime.start.p0(i64 8, ptr %5) #3
  store ptr null, ptr %5, align 8
  %6 = load ptr, ptr %3, align 8
  %7 = icmp ne ptr %6, null
  br i1 %7, label %8, label %10

8:                                                ; preds = %2
  %9 = load ptr, ptr %3, align 8
  br label %11

10:                                               ; preds = %2
  br label %11

11:                                               ; preds = %10, %8
  %12 = phi ptr [ %9, %8 ], [ @.str.6, %10 ]
  %13 = load ptr, ptr %4, align 8
  %14 = call i32 (ptr, ptr, ...) @SDL_asprintf_REAL(ptr noundef %5, ptr noundef @.str.4, ptr noundef %12, ptr noundef %13)
  %15 = load ptr, ptr %5, align 8
  call void @llvm.lifetime.end.p0(i64 8, ptr %5) #3
  ret ptr %15
}

; Function Attrs: nounwind uwtable
define internal zeroext i1 @GENERIC_EnumerateStorageDirectory(ptr noundef %0, ptr noundef %1, ptr noundef %2, ptr noundef %3) #0 {
  %5 = alloca ptr, align 8
  %6 = alloca ptr, align 8
  %7 = alloca ptr, align 8
  %8 = alloca ptr, align 8
  %9 = alloca i8, align 1
  %10 = alloca %struct.GenericEnumerateData, align 8
  %11 = alloca ptr, align 8
  store ptr %0, ptr %5, align 8
  store ptr %1, ptr %6, align 8
  store ptr %2, ptr %7, align 8
  store ptr %3, ptr %8, align 8
  call void @llvm.lifetime.start.p0(i64 1, ptr %9) #3
  store i8 0, ptr %9, align 1
  call void @llvm.lifetime.start.p0(i64 24, ptr %10) #3
  call void @llvm.lifetime.start.p0(i64 8, ptr %11) #3
  %12 = load ptr, ptr %5, align 8
  %13 = load ptr, ptr %6, align 8
  %14 = call ptr @GENERIC_INTERNAL_CreateFullPath(ptr noundef %12, ptr noundef %13)
  store ptr %14, ptr %11, align 8
  %15 = load ptr, ptr %11, align 8
  %16 = icmp ne ptr %15, null
  br i1 %16, label %17, label %29

17:                                               ; preds = %4
  %18 = load ptr, ptr %5, align 8
  %19 = call i64 @SDL_strlen_REAL(ptr noundef %18)
  %20 = getelementptr inbounds nuw %struct.GenericEnumerateData, ptr %10, i32 0, i32 0
  store i64 %19, ptr %20, align 8
  %21 = load ptr, ptr %7, align 8
  %22 = getelementptr inbounds nuw %struct.GenericEnumerateData, ptr %10, i32 0, i32 1
  store ptr %21, ptr %22, align 8
  %23 = load ptr, ptr %8, align 8
  %24 = getelementptr inbounds nuw %struct.GenericEnumerateData, ptr %10, i32 0, i32 2
  store ptr %23, ptr %24, align 8
  %25 = load ptr, ptr %11, align 8
  %26 = call zeroext i1 @SDL_EnumerateDirectory_REAL(ptr noundef %25, ptr noundef @GENERIC_EnumerateDirectory, ptr noundef %10)
  %27 = zext i1 %26 to i8
  store i8 %27, ptr %9, align 1
  %28 = load ptr, ptr %11, align 8
  call void @SDL_free_REAL(ptr noundef %28)
  br label %29

29:                                               ; preds = %17, %4
  %30 = load i8, ptr %9, align 1, !range !3, !noundef !4
  %31 = trunc i8 %30 to i1
  call void @llvm.lifetime.end.p0(i64 8, ptr %11) #3
  call void @llvm.lifetime.end.p0(i64 24, ptr %10) #3
  call void @llvm.lifetime.end.p0(i64 1, ptr %9) #3
  ret i1 %31
}