; Function Attrs: nounwind uwtable
define internal zeroext i1 @GENERIC_EnumerateStorageDirectory(ptr noundef %0, ptr noundef %1, ptr noundef %2, ptr noundef %3) #0 {
  %5 = alloca ptr, align 8
  %6 = alloca %struct.GenericEnumerateData, align 8
  call void @llvm.lifetime.start.p0(i64 24, ptr nonnull %6) #4
  call void @llvm.lifetime.start.p0(i64 8, ptr nonnull %5) #4
  store ptr null, ptr %5, align 8
  %.not.i = icmp eq ptr %0, null
  %7 = select i1 %.not.i, ptr @.str.6, ptr %0
  %8 = call i32 (ptr, ptr, ...) @SDL_asprintf_REAL(ptr noundef nonnull %5, ptr noundef nonnull @.str.4, ptr noundef nonnull %7, ptr noundef %1) #4
  %9 = load ptr, ptr %5, align 8
  call void @llvm.lifetime.end.p0(i64 8, ptr nonnull %5) #4
  %.not = icmp eq ptr %9, null
  br i1 %.not, label %15, label %10

10:                                               ; preds = %4
  %11 = call i64 @SDL_strlen_REAL(ptr noundef %0) #4
  store i64 %11, ptr %6, align 8
  %12 = getelementptr inbounds nuw i8, ptr %6, i64 8
  store ptr %2, ptr %12, align 8
  %13 = getelementptr inbounds nuw i8, ptr %6, i64 16
  store ptr %3, ptr %13, align 8
  %14 = call zeroext i1 @SDL_EnumerateDirectory_REAL(ptr noundef nonnull %9, ptr noundef nonnull @GENERIC_EnumerateDirectory, ptr noundef nonnull %6) #4
  call void @SDL_free_REAL(ptr noundef nonnull %9) #4
  br label %15

15:                                               ; preds = %10, %4
  %.0 = phi i1 [ %14, %10 ], [ false, %4 ]
  call void @llvm.lifetime.end.p0(i64 24, ptr nonnull %6) #4
  ret i1 %.0
}